target datalayout = "e-m:e-p270:32:32-p271:32:32-p272:64:64-i64:64-i128:128-f80:128-n8:16:32:64-S128"
target triple = "x86_64-pc-linux-gnu"

%struct._timelib_time = type { i64, i64, i64, i64, i64, i64, i64, i32, ptr, ptr, i32, %struct._timelib_rel_time, i64, i32, i32, i32, i32, i32, i32, i32, i32, i32 }
%struct._timelib_rel_time = type { i64, i64, i64, i64, i64, i64, i64, i32, i32, i32, i32, i64, %struct.anon, i32, i32 }
%struct.anon = type { i32, i64 }
%struct._timelib_tzinfo = type { ptr, %struct.anon.0, %struct.anon.1, ptr, ptr, ptr, ptr, ptr, i8, %struct._tlocinfo, ptr, ptr }
%struct.anon.0 = type { i32, i32, i32, i32, i32, i32 }
%struct.anon.1 = type { i64, i64, i64, i64, i64, i64 }
%struct._tlocinfo = type { [3 x i8], double, double, ptr }

@.str.11 = private unnamed_addr constant [10 x i8] c"TYPE: %d \00", align 1
@.str.12 = private unnamed_addr constant [55 x i8] c"TS: %lld | %s%04lld-%02lld-%02lld %02lld:%02lld:%02lld\00", align 1
@.str.13 = private unnamed_addr constant [2 x i8] c"-\00", align 1
@.str.14 = private unnamed_addr constant [1 x i8] zeroinitializer, align 1
@.str.15 = private unnamed_addr constant [10 x i8] c" 0.%06lld\00", align 1
@.str.16 = private unnamed_addr constant [12 x i8] c" GMT %05d%s\00", align 1
@.str.17 = private unnamed_addr constant [7 x i8] c" (DST)\00", align 1
@.str.18 = private unnamed_addr constant [4 x i8] c" %s\00", align 1
@.str.19 = private unnamed_addr constant [8 x i8] c" %05d%s\00", align 1
@.str.20 = private unnamed_addr constant [44 x i8] c"%3lldY %3lldM %3lldD / %3lldH %3lldM %3lldS\00", align 1
@.str.21 = private unnamed_addr constant [16 x i8] c" / first day of\00", align 1
@.str.22 = private unnamed_addr constant [15 x i8] c" / last day of\00", align 1
@.str.23 = private unnamed_addr constant [9 x i8] c" / %d.%d\00", align 1
@.str.24 = private unnamed_addr constant [16 x i8] c" / %lld weekday\00", align 1
@.str.25 = private unnamed_addr constant [18 x i8] c" / x y of z month\00", align 1
@.str.26 = private unnamed_addr constant [21 x i8] c" / last y of z month\00", align 1
@.str.27 = private unnamed_addr constant [2 x i8] c"\0A\00", align 1

; Function Attrs: nounwind uwtable
define hidden void @timelib_dump_date(ptr noundef %0, i32 noundef %1) #0 {
  %3 = alloca ptr, align 8
  %4 = alloca i32, align 4
  store ptr %0, ptr %3, align 8
  store i32 %1, ptr %4, align 4
  %5 = load i32, ptr %4, align 4
  %6 = and i32 %5, 2
  %7 = icmp eq i32 %6, 2
  br i1 %7, label %8, label %13

8:                                                ; preds = %2
  %9 = load ptr, ptr %3, align 8
  %10 = getelementptr inbounds %struct._timelib_time, ptr %9, i32 0, i32 21
  %11 = load i32, ptr %10, align 8
  %12 = call i32 (ptr, ...) @printf(ptr noundef @.str.11, i32 noundef %11)
  br label %13

13:                                               ; preds = %8, %2
  %14 = load ptr, ptr %3, align 8
  %15 = getelementptr inbounds %struct._timelib_time, ptr %14, i32 0, i32 12
  %16 = load i64, ptr %15, align 8
  %17 = load ptr, ptr %3, align 8
  %18 = getelementptr inbounds %struct._timelib_time, ptr %17, i32 0, i32 0
  %19 = load i64, ptr %18, align 8
  %20 = icmp slt i64 %19, 0
  %21 = select i1 %20, ptr @.str.13, ptr @.str.14
  %22 = load ptr, ptr %3, align 8
  %23 = getelementptr inbounds %struct._timelib_time, ptr %22, i32 0, i32 0
  %24 = load i64, ptr %23, align 8
  %25 = icmp slt i64 %24, 0
  br i1 %25, label %26, label %31

26:                                               ; preds = %13
  %27 = load ptr, ptr %3, align 8
  %28 = getelementptr inbounds %struct._timelib_time, ptr %27, i32 0, i32 0
  %29 = load i64, ptr %28, align 8
  %30 = mul nsw i64 %29, -1
  br label %35

31:                                               ; preds = %13
  %32 = load ptr, ptr %3, align 8
  %33 = getelementptr inbounds %struct._timelib_time, ptr %32, i32 0, i32 0
  %34 = load i64, ptr %33, align 8
  br label %35

35:                                               ; preds = %31, %26
  %36 = phi i64 [ %30, %26 ], [ %34, %31 ]
  %37 = load ptr, ptr %3, align 8
  %38 = getelementptr inbounds %struct._timelib_time, ptr %37, i32 0, i32 1
  %39 = load i64, ptr %38, align 8
  %40 = load ptr, ptr %3, align 8
  %41 = getelementptr inbounds %struct._timelib_time, ptr %40, i32 0, i32 2
  %42 = load i64, ptr %41, align 8
  %43 = load ptr, ptr %3, align 8
  %44 = getelementptr inbounds %struct._timelib_time, ptr %43, i32 0, i32 3
  %45 = load i64, ptr %44, align 8
  %46 = load ptr, ptr %3, align 8
  %47 = getelementptr inbounds %struct._timelib_time, ptr %46, i32 0, i32 4
  %48 = load i64, ptr %47, align 8
  %49 = load ptr, ptr %3, align 8
  %50 = getelementptr inbounds %struct._timelib_time, ptr %49, i32 0, i32 5
  %51 = load i64, ptr %50, align 8
  %52 = call i32 (ptr, ...) @printf(ptr noundef @.str.12, i64 noundef %16, ptr noundef %21, i64 noundef %36, i64 noundef %39, i64 noundef %42, i64 noundef %45, i64 noundef %48, i64 noundef %51)
  %53 = load ptr, ptr %3, align 8
  %54 = getelementptr inbounds %struct._timelib_time, ptr %53, i32 0, i32 6
  %55 = load i64, ptr %54, align 8
  %56 = icmp sgt i64 %55, 0
  br i1 %56, label %57, label %62

57:                                               ; preds = %35
  %58 = load ptr, ptr %3, align 8
  %59 = getelementptr inbounds %struct._timelib_time, ptr %58, i32 0, i32 6
  %60 = load i64, ptr %59, align 8
  %61 = call i32 (ptr, ...) @printf(ptr noundef @.str.15, i64 noundef %60)
  br label %62

62:                                               ; preds = %57, %35
  %63 = load ptr, ptr %3, align 8
  %64 = getelementptr inbounds %struct._timelib_time, ptr %63, i32 0, i32 20
  %65 = load i32, ptr %64, align 4
  %66 = icmp ne i32 %65, 0
  br i1 %66, label %67, label %119

67:                                               ; preds = %62
  %68 = load ptr, ptr %3, align 8
  %69 = getelementptr inbounds %struct._timelib_time, ptr %68, i32 0, i32 21
  %70 = load i32, ptr %69, align 8
  switch i32 %70, label %118 [
    i32 1, label %71
    i32 3, label %81
    i32 2, label %104
  ]

71:                                               ; preds = %67
  %72 = load ptr, ptr %3, align 8
  %73 = getelementptr inbounds %struct._timelib_time, ptr %72, i32 0, i32 7
  %74 = load i32, ptr %73, align 8
  %75 = load ptr, ptr %3, align 8
  %76 = getelementptr inbounds %struct._timelib_time, ptr %75, i32 0, i32 10
  %77 = load i32, ptr %76, align 8
  %78 = icmp eq i32 %77, 1
  %79 = select i1 %78, ptr @.str.17, ptr @.str.14
  %80 = call i32 (ptr, ...) @printf(ptr noundef @.str.16, i32 noundef %74, ptr noundef %79)
  br label %118

81:                                               ; preds = %67
  %82 = load ptr, ptr %3, align 8
  %83 = getelementptr inbounds %struct._timelib_time, ptr %82, i32 0, i32 8
  %84 = load ptr, ptr %83, align 8
  %85 = icmp ne ptr %84, null
  br i1 %85, label %86, label %91

86:                                               ; preds = %81
  %87 = load ptr, ptr %3, align 8
  %88 = getelementptr inbounds %struct._timelib_time, ptr %87, i32 0, i32 8
  %89 = load ptr, ptr %88, align 8
  %90 = call i32 (ptr, ...) @printf(ptr noundef @.str.18, ptr noundef %89)
  br label %91

91:                                               ; preds = %86, %81
  %92 = load ptr, ptr %3, align 8
  %93 = getelementptr inbounds %struct._timelib_time, ptr %92, i32 0, i32 9
  %94 = load ptr, ptr %93, align 8
  %95 = icmp ne ptr %94, null
  br i1 %95, label %96, label %103

96:                                               ; preds = %91
  %97 = load ptr, ptr %3, align 8
  %98 = getelementptr inbounds %struct._timelib_time, ptr %97, i32 0, i32 9
  %99 = load ptr, ptr %98, align 8
  %100 = getelementptr inbounds %struct._timelib_tzinfo, ptr %99, i32 0, i32 0
  %101 = load ptr, ptr %100, align 8
  %102 = call i32 (ptr, ...) @printf(ptr noundef @.str.18, ptr noundef %101)
  br label %103

103:                                              ; preds = %96, %91
  br label %118

104:                                              ; preds = %67
  %105 = load ptr, ptr %3, align 8
  %106 = getelementptr inbounds %struct._timelib_time, ptr %105, i32 0, i32 8
  %107 = load ptr, ptr %106, align 8
  %108 = call i32 (ptr, ...) @printf(ptr noundef @.str.18, ptr noundef %107)
  %109 = load ptr, ptr %3, align 8
  %110 = getelementptr inbounds %struct._timelib_time, ptr %109, i32 0, i32 7
  %111 = load i32, ptr %110, align 8
  %112 = load ptr, ptr %3, align 8
  %113 = getelementptr inbounds %struct._timelib_time, ptr %112, i32 0, i32 10
  %114 = load i32, ptr %113, align 8
  %115 = icmp eq i32 %114, 1
  %116 = select i1 %115, ptr @.str.17, ptr @.str.14
  %117 = call i32 (ptr, ...) @printf(ptr noundef @.str.19, i32 noundef %111, ptr noundef %116)
  br label %118

118:                                              ; preds = %104, %103, %71, %67
  br label %119

119:                                              ; preds = %118, %62
  %120 = load i32, ptr %4, align 4
  %121 = and i32 %120, 1
  %122 = icmp eq i32 %121, 1
  br i1 %122, label %123, label %223

123:                                              ; preds = %119
  %124 = load ptr, ptr %3, align 8
  %125 = getelementptr inbounds %struct._timelib_time, ptr %124, i32 0, i32 16
  %126 = load i32, ptr %125, align 4
  %127 = icmp ne i32 %126, 0
  br i1 %127, label %128, label %222

128:                                              ; preds = %123
  %129 = load ptr, ptr %3, align 8
  %130 = getelementptr inbounds %struct._timelib_time, ptr %129, i32 0, i32 11
  %131 = getelementptr inbounds %struct._timelib_rel_time, ptr %130, i32 0, i32 0
  %132 = load i64, ptr %131, align 8
  %133 = load ptr, ptr %3, align 8
  %134 = getelementptr inbounds %struct._timelib_time, ptr %133, i32 0, i32 11
  %135 = getelementptr inbounds %struct._timelib_rel_time, ptr %134, i32 0, i32 1
  %136 = load i64, ptr %135, align 8
  %137 = load ptr, ptr %3, align 8
  %138 = getelementptr inbounds %struct._timelib_time, ptr %137, i32 0, i32 11
  %139 = getelementptr inbounds %struct._timelib_rel_time, ptr %138, i32 0, i32 2
  %140 = load i64, ptr %139, align 8
  %141 = load ptr, ptr %3, align 8
  %142 = getelementptr inbounds %struct._timelib_time, ptr %141, i32 0, i32 11
  %143 = getelementptr inbounds %struct._timelib_rel_time, ptr %142, i32 0, i32 3
  %144 = load i64, ptr %143, align 8
  %145 = load ptr, ptr %3, align 8
  %146 = getelementptr inbounds %struct._timelib_time, ptr %145, i32 0, i32 11
  %147 = getelementptr inbounds %struct._timelib_rel_time, ptr %146, i32 0, i32 4
  %148 = load i64, ptr %147, align 8
  %149 = load ptr, ptr %3, align 8
  %150 = getelementptr inbounds %struct._timelib_time, ptr %149, i32 0, i32 11
  %151 = getelementptr inbounds %struct._timelib_rel_time, ptr %150, i32 0, i32 5
  %152 = load i64, ptr %151, align 8
  %153 = call i32 (ptr, ...) @printf(ptr noundef @.str.20, i64 noundef %132, i64 noundef %136, i64 noundef %140, i64 noundef %144, i64 noundef %148, i64 noundef %152)
  %154 = load ptr, ptr %3, align 8
  %155 = getelementptr inbounds %struct._timelib_time, ptr %154, i32 0, i32 11
  %156 = getelementptr inbounds %struct._timelib_rel_time, ptr %155, i32 0, i32 6
  %157 = load i64, ptr %156, align 8
  %158 = icmp ne i64 %157, 0
  br i1 %158, label %159, label %165

159:                                              ; preds = %128
  %160 = load ptr, ptr %3, align 8
  %161 = getelementptr inbounds %struct._timelib_time, ptr %160, i32 0, i32 11
  %162 = getelementptr inbounds %struct._timelib_rel_time, ptr %161, i32 0, i32 6
  %163 = load i64, ptr %162, align 8
  %164 = call i32 (ptr, ...) @printf(ptr noundef @.str.15, i64 noundef %163)
  br label %165

165:                                              ; preds = %159, %128
  %166 = load ptr, ptr %3, align 8
  %167 = getelementptr inbounds %struct._timelib_time, ptr %166, i32 0, i32 11
  %168 = getelementptr inbounds %struct._timelib_rel_time, ptr %167, i32 0, i32 9
  %169 = load i32, ptr %168, align 8
  %170 = icmp ne i32 %169, 0
  br i1 %170, label %171, label %181

171:                                              ; preds = %165
  %172 = load ptr, ptr %3, align 8
  %173 = getelementptr inbounds %struct._timelib_time, ptr %172, i32 0, i32 11
  %174 = getelementptr inbounds %struct._timelib_rel_time, ptr %173, i32 0, i32 9
  %175 = load i32, ptr %174, align 8
  switch i32 %175, label %180 [
    i32 1, label %176
    i32 2, label %178
  ]

176:                                              ; preds = %171
  %177 = call i32 (ptr, ...) @printf(ptr noundef @.str.21)
  br label %180

178:                                              ; preds = %171
  %179 = call i32 (ptr, ...) @printf(ptr noundef @.str.22)
  br label %180

180:                                              ; preds = %178, %176, %171
  br label %181

181:                                              ; preds = %180, %165
  %182 = load ptr, ptr %3, align 8
  %183 = getelementptr inbounds %struct._timelib_time, ptr %182, i32 0, i32 11
  %184 = getelementptr inbounds %struct._timelib_rel_time, ptr %183, i32 0, i32 13
  %185 = load i32, ptr %184, align 8
  %186 = icmp ne i32 %185, 0
  br i1 %186, label %187, label %197

187:                                              ; preds = %181
  %188 = load ptr, ptr %3, align 8
  %189 = getelementptr inbounds %struct._timelib_time, ptr %188, i32 0, i32 11
  %190 = getelementptr inbounds %struct._timelib_rel_time, ptr %189, i32 0, i32 7
  %191 = load i32, ptr %190, align 8
  %192 = load ptr, ptr %3, align 8
  %193 = getelementptr inbounds %struct._timelib_time, ptr %192, i32 0, i32 11
  %194 = getelementptr inbounds %struct._timelib_rel_time, ptr %193, i32 0, i32 8
  %195 = load i32, ptr %194, align 4
  %196 = call i32 (ptr, ...) @printf(ptr noundef @.str.23, i32 noundef %191, i32 noundef %195)
  br label %197

197:                                              ; preds = %187, %181
  %198 = load ptr, ptr %3, align 8
  %199 = getelementptr inbounds %struct._timelib_time, ptr %198, i32 0, i32 11
  %200 = getelementptr inbounds %struct._timelib_rel_time, ptr %199, i32 0, i32 14
  %201 = load i32, ptr %200, align 4
  %202 = icmp ne i32 %201, 0
  br i1 %202, label %203, label %221

203:                                              ; preds = %197
  %204 = load ptr, ptr %3, align 8
  %205 = getelementptr inbounds %struct._timelib_time, ptr %204, i32 0, i32 11
  %206 = getelementptr inbounds %struct._timelib_rel_time, ptr %205, i32 0, i32 12
  %207 = getelementptr inbounds %struct.anon, ptr %206, i32 0, i32 0
  %208 = load i32, ptr %207, align 8
  switch i32 %208, label %220 [
    i32 1, label %209
    i32 2, label %216
    i32 3, label %218
  ]

209:                                              ; preds = %203
  %210 = load ptr, ptr %3, align 8
  %211 = getelementptr inbounds %struct._timelib_time, ptr %210, i32 0, i32 11
  %212 = getelementptr inbounds %struct._timelib_rel_time, ptr %211, i32 0, i32 12
  %213 = getelementptr inbounds %struct.anon, ptr %212, i32 0, i32 1
  %214 = load i64, ptr %213, align 8
  %215 = call i32 (ptr, ...) @printf(ptr noundef @.str.24, i64 noundef %214)
  br label %220

216:                                              ; preds = %203
  %217 = call i32 (ptr, ...) @printf(ptr noundef @.str.25)
  br label %220

218:                                              ; preds = %203
  %219 = call i32 (ptr, ...) @printf(ptr noundef @.str.26)
  br label %220

220:                                              ; preds = %218, %216, %209, %203
  br label %221

221:                                              ; preds = %220, %197
  br label %222

222:                                              ; preds = %221, %123
  br label %223

223:                                              ; preds = %222, %119
  %224 = call i32 (ptr, ...) @printf(ptr noundef @.str.27)
  ret void
}