; Function Attrs: nofree nounwind uwtable
define hidden void @timelib_dump_date(ptr nocapture noundef readonly %0, i32 noundef %1) local_unnamed_addr #13 {
  %3 = and i32 %1, 2
  %.not = icmp eq i32 %3, 0
  br i1 %.not, label %8, label %4

4:                                                ; preds = %2
  %5 = getelementptr inbounds i8, ptr %0, i64 232
  %6 = load i32, ptr %5, align 8
  %7 = tail call i32 (ptr, ...) @printf(ptr noundef nonnull dereferenceable(1) @.str.11, i32 noundef %6)
  br label %8

8:                                                ; preds = %4, %2
  %9 = getelementptr inbounds i8, ptr %0, i64 192
  %10 = load i64, ptr %9, align 8
  %11 = load i64, ptr %0, align 8
  %12 = icmp slt i64 %11, 0
  %13 = select i1 %12, ptr @.str.13, ptr @.str.14
  %14 = tail call i64 @llvm.abs.i64(i64 %11, i1 true)
  %15 = getelementptr inbounds i8, ptr %0, i64 8
  %16 = load i64, ptr %15, align 8
  %17 = getelementptr inbounds i8, ptr %0, i64 16
  %18 = load i64, ptr %17, align 8
  %19 = getelementptr inbounds i8, ptr %0, i64 24
  %20 = load i64, ptr %19, align 8
  %21 = getelementptr inbounds i8, ptr %0, i64 32
  %22 = load i64, ptr %21, align 8
  %23 = getelementptr inbounds i8, ptr %0, i64 40
  %24 = load i64, ptr %23, align 8
  %25 = tail call i32 (ptr, ...) @printf(ptr noundef nonnull dereferenceable(1) @.str.12, i64 noundef %10, ptr noundef nonnull %13, i64 noundef %14, i64 noundef %16, i64 noundef %18, i64 noundef %20, i64 noundef %22, i64 noundef %24)
  %26 = getelementptr inbounds i8, ptr %0, i64 48
  %27 = load i64, ptr %26, align 8
  %28 = icmp sgt i64 %27, 0
  br i1 %28, label %29, label %31

29:                                               ; preds = %8
  %30 = tail call i32 (ptr, ...) @printf(ptr noundef nonnull dereferenceable(1) @.str.15, i64 noundef %27)
  br label %31

31:                                               ; preds = %29, %8
  %32 = getelementptr inbounds i8, ptr %0, i64 228
  %33 = load i32, ptr %32, align 4
  %.not47 = icmp eq i32 %33, 0
  br i1 %.not47, label %67, label %34

34:                                               ; preds = %31
  %35 = getelementptr inbounds i8, ptr %0, i64 232
  %36 = load i32, ptr %35, align 8
  switch i32 %36, label %67 [
    i32 1, label %37
    i32 3, label %45
    i32 2, label %56
  ]

37:                                               ; preds = %34
  %38 = getelementptr inbounds i8, ptr %0, i64 56
  %39 = load i32, ptr %38, align 8
  %40 = getelementptr inbounds i8, ptr %0, i64 80
  %41 = load i32, ptr %40, align 8
  %42 = icmp eq i32 %41, 1
  %43 = select i1 %42, ptr @.str.17, ptr @.str.14
  %44 = tail call i32 (ptr, ...) @printf(ptr noundef nonnull dereferenceable(1) @.str.16, i32 noundef %39, ptr noundef nonnull %43)
  br label %67

45:                                               ; preds = %34
  %46 = getelementptr inbounds i8, ptr %0, i64 64
  %47 = load ptr, ptr %46, align 8
  %.not48 = icmp eq ptr %47, null
  br i1 %.not48, label %50, label %48

48:                                               ; preds = %45
  %49 = tail call i32 (ptr, ...) @printf(ptr noundef nonnull dereferenceable(1) @.str.18, ptr noundef nonnull %47)
  br label %50

50:                                               ; preds = %48, %45
  %51 = getelementptr inbounds i8, ptr %0, i64 72
  %52 = load ptr, ptr %51, align 8
  %.not49 = icmp eq ptr %52, null
  br i1 %.not49, label %67, label %53

53:                                               ; preds = %50
  %54 = load ptr, ptr %52, align 8
  %55 = tail call i32 (ptr, ...) @printf(ptr noundef nonnull dereferenceable(1) @.str.18, ptr noundef %54)
  br label %67

56:                                               ; preds = %34
  %57 = getelementptr inbounds i8, ptr %0, i64 64
  %58 = load ptr, ptr %57, align 8
  %59 = tail call i32 (ptr, ...) @printf(ptr noundef nonnull dereferenceable(1) @.str.18, ptr noundef %58)
  %60 = getelementptr inbounds i8, ptr %0, i64 56
  %61 = load i32, ptr %60, align 8
  %62 = getelementptr inbounds i8, ptr %0, i64 80
  %63 = load i32, ptr %62, align 8
  %64 = icmp eq i32 %63, 1
  %65 = select i1 %64, ptr @.str.17, ptr @.str.14
  %66 = tail call i32 (ptr, ...) @printf(ptr noundef nonnull dereferenceable(1) @.str.19, i32 noundef %61, ptr noundef nonnull %65)
  br label %67

67:                                               ; preds = %34, %37, %56, %53, %50, %31
  %68 = and i32 %1, 1
  %.not50 = icmp eq i32 %68, 0
  br i1 %.not50, label %118, label %69

69:                                               ; preds = %67
  %70 = getelementptr inbounds i8, ptr %0, i64 212
  %71 = load i32, ptr %70, align 4
  %.not51 = icmp eq i32 %71, 0
  br i1 %.not51, label %118, label %72

72:                                               ; preds = %69
  %73 = getelementptr inbounds i8, ptr %0, i64 88
  %74 = load i64, ptr %73, align 8
  %75 = getelementptr inbounds i8, ptr %0, i64 96
  %76 = load i64, ptr %75, align 8
  %77 = getelementptr inbounds i8, ptr %0, i64 104
  %78 = load i64, ptr %77, align 8
  %79 = getelementptr inbounds i8, ptr %0, i64 112
  %80 = load i64, ptr %79, align 8
  %81 = getelementptr inbounds i8, ptr %0, i64 120
  %82 = load i64, ptr %81, align 8
  %83 = getelementptr inbounds i8, ptr %0, i64 128
  %84 = load i64, ptr %83, align 8
  %85 = tail call i32 (ptr, ...) @printf(ptr noundef nonnull dereferenceable(1) @.str.20, i64 noundef %74, i64 noundef %76, i64 noundef %78, i64 noundef %80, i64 noundef %82, i64 noundef %84)
  %86 = getelementptr inbounds i8, ptr %0, i64 136
  %87 = load i64, ptr %86, align 8
  %.not52 = icmp eq i64 %87, 0
  br i1 %.not52, label %90, label %88

88:                                               ; preds = %72
  %89 = tail call i32 (ptr, ...) @printf(ptr noundef nonnull dereferenceable(1) @.str.15, i64 noundef %87)
  br label %90

90:                                               ; preds = %88, %72
  %91 = getelementptr inbounds i8, ptr %0, i64 152
  %92 = load i32, ptr %91, align 8
  switch i32 %92, label %95 [
    i32 2, label %93
    i32 1, label %.sink.split
  ]

93:                                               ; preds = %90
  br label %.sink.split

.sink.split:                                      ; preds = %90, %93
  %.str.21.sink = phi ptr [ @.str.22, %93 ], [ @.str.21, %90 ]
  %94 = tail call i32 (ptr, ...) @printf(ptr noundef nonnull dereferenceable(1) %.str.21.sink)
  br label %95

95:                                               ; preds = %.sink.split, %90
  %96 = getelementptr inbounds i8, ptr %0, i64 184
  %97 = load i32, ptr %96, align 8
  %.not54 = icmp eq i32 %97, 0
  br i1 %.not54, label %104, label %98

98:                                               ; preds = %95
  %99 = getelementptr inbounds i8, ptr %0, i64 144
  %100 = load i32, ptr %99, align 8
  %101 = getelementptr inbounds i8, ptr %0, i64 148
  %102 = load i32, ptr %101, align 4
  %103 = tail call i32 (ptr, ...) @printf(ptr noundef nonnull dereferenceable(1) @.str.23, i32 noundef %100, i32 noundef %102)
  br label %104

104:                                              ; preds = %98, %95
  %105 = getelementptr inbounds i8, ptr %0, i64 188
  %106 = load i32, ptr %105, align 4
  %.not55 = icmp eq i32 %106, 0
  br i1 %.not55, label %118, label %107

107:                                              ; preds = %104
  %108 = getelementptr inbounds i8, ptr %0, i64 168
  %109 = load i32, ptr %108, align 8
  switch i32 %109, label %118 [
    i32 1, label %110
    i32 2, label %114
    i32 3, label %116
  ]

110:                                              ; preds = %107
  %111 = getelementptr inbounds i8, ptr %0, i64 176
  %112 = load i64, ptr %111, align 8
  %113 = tail call i32 (ptr, ...) @printf(ptr noundef nonnull dereferenceable(1) @.str.24, i64 noundef %112)
  br label %118

114:                                              ; preds = %107
  %115 = tail call i32 (ptr, ...) @printf(ptr noundef nonnull dereferenceable(1) @.str.25)
  br label %118

116:                                              ; preds = %107
  %117 = tail call i32 (ptr, ...) @printf(ptr noundef nonnull dereferenceable(1) @.str.26)
  br label %118

118:                                              ; preds = %69, %107, %110, %114, %116, %104, %67
  %putchar = tail call i32 @putchar(i32 10)
  ret void
}